; Function Attrs: nounwind uwtable
define internal fastcc range(i32 0, 2) i32 @add1_extension(ptr noundef nonnull %0, i32 noundef range(i32 85, 142) %1, i32 noundef %2, ptr noundef %3) unnamed_addr #0 {
  %5 = tail call ptr @X509V3_EXT_i2d(i32 noundef %1, i32 noundef %2, ptr noundef %3) #7
  %6 = icmp eq ptr %5, null
  br i1 %6, label %11, label %7

7:                                                ; preds = %4
  %8 = tail call ptr @X509v3_add_ext(ptr noundef nonnull %0, ptr noundef nonnull %5, i32 noundef 0) #7
  %9 = icmp ne ptr %8, null
  %10 = zext i1 %9 to i32
  tail call void @X509_EXTENSION_free(ptr noundef nonnull %5) #7
  br label %11

11:                                               ; preds = %4, %7
  %.0 = phi i32 [ %10, %7 ], [ 0, %4 ]
  ret i32 %.0
}